; Function Attrs: nofree norecurse nosync nounwind memory(argmem: readwrite) uwtable
define internal void @h264_h_loop_filter_luma_intra_9_c(ptr noundef captures(none) %0, i64 noundef %1, i32 noundef %2, i32 noundef %3) #1 {
  %5 = ashr i64 %1, 1
  %6 = shl i32 %2, 1
  %7 = shl i32 %3, 1
  %8 = lshr i32 %6, 2
  %9 = add nuw nsw i32 %8, 2
  br label %10

10:                                               ; preds = %4, %124
  %.0.i4 = phi ptr [ %0, %4 ], [ %125, %124 ]
  %.0127.i3 = phi i32 [ 0, %4 ], [ %126, %124 ]
  %11 = getelementptr inbounds i8, ptr %.0.i4, i64 -6
  %12 = load i16, ptr %11, align 2, !tbaa !37
  %13 = zext i16 %12 to i32
  %14 = getelementptr inbounds i8, ptr %.0.i4, i64 -4
  %15 = load i16, ptr %14, align 2, !tbaa !37
  %16 = zext i16 %15 to i32
  %17 = getelementptr inbounds i8, ptr %.0.i4, i64 -2
  %18 = load i16, ptr %17, align 2, !tbaa !37
  %19 = zext i16 %18 to i32
  %20 = load i16, ptr %.0.i4, align 2, !tbaa !37
  %21 = zext i16 %20 to i32
  %22 = getelementptr inbounds nuw i8, ptr %.0.i4, i64 2
  %23 = load i16, ptr %22, align 2, !tbaa !37
  %24 = zext i16 %23 to i32
  %25 = getelementptr inbounds nuw i8, ptr %.0.i4, i64 4
  %26 = load i16, ptr %25, align 2, !tbaa !37
  %27 = zext i16 %26 to i32
  %28 = sub nsw i32 %19, %21
  %29 = tail call i32 @llvm.abs.i32(i32 %28, i1 true)
  %30 = icmp slt i32 %29, %6
  br i1 %30, label %31, label %124

31:                                               ; preds = %10
  %32 = sub nsw i32 %16, %19
  %33 = tail call i32 @llvm.abs.i32(i32 %32, i1 true)
  %34 = icmp slt i32 %33, %7
  br i1 %34, label %35, label %124

35:                                               ; preds = %31
  %36 = sub nsw i32 %24, %21
  %37 = tail call i32 @llvm.abs.i32(i32 %36, i1 true)
  %38 = icmp samesign ult i32 %37, %7
  br i1 %38, label %39, label %124

39:                                               ; preds = %35
  %40 = icmp samesign ult i32 %29, %9
  br i1 %40, label %41, label %111

41:                                               ; preds = %39
  %42 = sub nsw i32 %13, %19
  %43 = tail call i32 @llvm.abs.i32(i32 %42, i1 true)
  %44 = icmp samesign ult i32 %43, %7
  br i1 %44, label %45, label %70

45:                                               ; preds = %41
  %46 = getelementptr inbounds i8, ptr %.0.i4, i64 -8
  %47 = load i16, ptr %46, align 2, !tbaa !37
  %48 = zext i16 %47 to i32
  %49 = add nuw nsw i32 %21, %16
  %50 = add nuw nsw i32 %49, %19
  %51 = shl nuw nsw i32 %50, 1
  %52 = add nuw nsw i32 %24, 4
  %53 = add nuw nsw i32 %52, %13
  %54 = add nuw nsw i32 %53, %51
  %55 = lshr i32 %54, 3
  %56 = add nuw nsw i32 %49, 2
  %57 = add nuw nsw i32 %56, %13
  %58 = add nuw nsw i32 %57, %19
  %59 = lshr i32 %58, 2
  %60 = trunc nuw i32 %59 to i16
  store i16 %60, ptr %14, align 2, !tbaa !37
  %61 = shl nuw nsw i32 %48, 1
  %62 = mul nuw nsw i32 %13, 3
  %63 = add nuw nsw i32 %62, 4
  %64 = add nuw nsw i32 %63, %16
  %65 = add nuw nsw i32 %64, %19
  %66 = add nuw nsw i32 %65, %21
  %67 = add nuw nsw i32 %66, %61
  %68 = lshr i32 %67, 3
  %69 = trunc nuw i32 %68 to i16
  store i16 %69, ptr %11, align 2, !tbaa !37
  br label %76

70:                                               ; preds = %41
  %71 = shl nuw nsw i32 %16, 1
  %72 = add nuw nsw i32 %19, 2
  %73 = add nuw nsw i32 %72, %71
  %74 = add nuw nsw i32 %73, %24
  %75 = lshr i32 %74, 2
  br label %76

76:                                               ; preds = %70, %45
  %.sink.in = phi i32 [ %55, %45 ], [ %75, %70 ]
  %.sink = trunc nuw i32 %.sink.in to i16
  store i16 %.sink, ptr %17, align 2, !tbaa !37
  %77 = sub nsw i32 %27, %21
  %78 = tail call i32 @llvm.abs.i32(i32 %77, i1 true)
  %79 = icmp samesign ult i32 %78, %7
  br i1 %79, label %80, label %104

80:                                               ; preds = %76
  %81 = getelementptr inbounds nuw i8, ptr %.0.i4, i64 6
  %82 = load i16, ptr %81, align 2, !tbaa !37
  %83 = zext i16 %82 to i32
  %84 = add nuw nsw i32 %21, %19
  %85 = add nuw nsw i32 %84, %24
  %86 = shl nuw nsw i32 %85, 1
  %87 = add nuw nsw i32 %16, 4
  %88 = add nuw nsw i32 %87, %27
  %89 = add nuw nsw i32 %88, %86
  %90 = lshr i32 %89, 3
  %91 = trunc nuw i32 %90 to i16
  store i16 %91, ptr %.0.i4, align 2, !tbaa !37
  %92 = add nuw nsw i32 %27, 2
  %93 = add nuw nsw i32 %92, %85
  %94 = lshr i32 %93, 2
  %95 = trunc nuw i32 %94 to i16
  store i16 %95, ptr %22, align 2, !tbaa !37
  %96 = shl nuw nsw i32 %83, 1
  %97 = mul nuw nsw i32 %27, 3
  %98 = add nuw nsw i32 %84, 4
  %99 = add nuw nsw i32 %98, %24
  %100 = add nuw nsw i32 %99, %97
  %101 = add nuw nsw i32 %100, %96
  %102 = lshr i32 %101, 3
  %103 = trunc nuw i32 %102 to i16
  store i16 %103, ptr %25, align 2, !tbaa !37
  br label %124

104:                                              ; preds = %76
  %105 = shl nuw nsw i32 %24, 1
  %106 = add nuw nsw i32 %21, %16
  %107 = add nuw nsw i32 %106, 2
  %108 = add nuw nsw i32 %107, %105
  %109 = lshr i32 %108, 2
  %110 = trunc nuw i32 %109 to i16
  store i16 %110, ptr %.0.i4, align 2, !tbaa !37
  br label %124

111:                                              ; preds = %39
  %112 = shl nuw nsw i32 %16, 1
  %113 = add nuw nsw i32 %19, 2
  %114 = add nuw nsw i32 %113, %112
  %115 = add nuw nsw i32 %114, %24
  %116 = lshr i32 %115, 2
  %117 = trunc nuw i32 %116 to i16
  store i16 %117, ptr %17, align 2, !tbaa !37
  %118 = shl nuw nsw i32 %24, 1
  %119 = add nuw nsw i32 %21, %16
  %120 = add nuw nsw i32 %119, 2
  %121 = add nuw nsw i32 %120, %118
  %122 = lshr i32 %121, 2
  %123 = trunc nuw i32 %122 to i16
  store i16 %123, ptr %.0.i4, align 2, !tbaa !37
  br label %124

124:                                              ; preds = %111, %104, %80, %35, %31, %10
  %125 = getelementptr inbounds i16, ptr %.0.i4, i64 %5
  %126 = add nuw nsw i32 %.0127.i3, 1
  %exitcond.not = icmp eq i32 %126, 16
  br i1 %exitcond.not, label %h264_loop_filter_luma_intra_9_c.exit, label %10, !llvm.loop !55

h264_loop_filter_luma_intra_9_c.exit:             ; preds = %124
  ret void
}